target datalayout = "e-m:e-p270:32:32-p271:32:32-p272:64:64-i64:64-i128:128-f80:128-n8:16:32:64-S128"
target triple = "x86_64-pc-linux-gnu"

%struct.expert_field = type { i32, i32 }

@hf_opcua_ArraySize = internal global i32 0, align 4
@ei_array_length = internal global %struct.expert_field zeroinitializer, align 4
@.str.209 = private unnamed_addr constant [16 x i8] c"%s: Array of %s\00", align 1
@.str.210 = private unnamed_addr constant [37 x i8] c"Array length %d too large to process\00", align 1
@.str.211 = private unnamed_addr constant [7 x i8] c"[%i]: \00", align 1

; Function Attrs: null_pointer_is_valid sspstrong uwtable
define hidden void @parseArraySimple(ptr noundef %0, ptr noundef %1, ptr noundef %2, ptr noundef %3, ptr noundef %4, ptr noundef %5, i32 noundef %6, ptr noundef %7, i32 noundef %8) #0 {
  %10 = alloca ptr, align 8
  %11 = alloca ptr, align 8
  %12 = alloca ptr, align 8
  %13 = alloca ptr, align 8
  %14 = alloca ptr, align 8
  %15 = alloca ptr, align 8
  %16 = alloca i32, align 4
  %17 = alloca ptr, align 8
  %18 = alloca i32, align 4
  %19 = alloca ptr, align 8
  %20 = alloca ptr, align 8
  %21 = alloca i32, align 4
  %22 = alloca i32, align 4
  %23 = alloca i32, align 4
  %24 = alloca ptr, align 8
  store ptr %0, ptr %10, align 8
  store ptr %1, ptr %11, align 8
  store ptr %2, ptr %12, align 8
  store ptr %3, ptr %13, align 8
  store ptr %4, ptr %14, align 8
  store ptr %5, ptr %15, align 8
  store i32 %6, ptr %16, align 4
  store ptr %7, ptr %17, align 8
  store i32 %8, ptr %18, align 4
  call void @llvm.lifetime.start.p0(i64 8, ptr %19) #3
  call void @llvm.lifetime.start.p0(i64 8, ptr %20) #3
  %25 = load ptr, ptr %10, align 8
  %26 = load ptr, ptr %11, align 8
  %27 = load ptr, ptr %13, align 8
  %28 = load i32, ptr %27, align 4
  %29 = load i32, ptr %18, align 4
  %30 = load ptr, ptr %14, align 8
  %31 = load ptr, ptr %15, align 8
  %32 = call ptr (ptr, ptr, i32, i32, i32, ptr, ptr, ...) @proto_tree_add_subtree_format(ptr noundef %25, ptr noundef %26, i32 noundef %28, i32 noundef -1, i32 noundef %29, ptr noundef %19, ptr noundef @.str.209, ptr noundef %30, ptr noundef %31)
  store ptr %32, ptr %20, align 8
  call void @llvm.lifetime.start.p0(i64 4, ptr %21) #3
  call void @llvm.lifetime.start.p0(i64 4, ptr %22) #3
  %33 = load ptr, ptr %11, align 8
  %34 = load ptr, ptr %13, align 8
  %35 = load i32, ptr %34, align 4
  %36 = call i32 @tvb_get_letohl(ptr noundef %33, i32 noundef %35)
  store i32 %36, ptr %22, align 4
  %37 = load ptr, ptr %20, align 8
  %38 = load i32, ptr @hf_opcua_ArraySize, align 4
  %39 = load ptr, ptr %11, align 8
  %40 = load ptr, ptr %13, align 8
  %41 = load i32, ptr %40, align 4
  %42 = call ptr @proto_tree_add_item(ptr noundef %37, i32 noundef %38, ptr noundef %39, i32 noundef %41, i32 noundef 4, i32 noundef -2147483648)
  %43 = load i32, ptr %22, align 4
  %44 = icmp sgt i32 %43, 10000
  br i1 %44, label %45, label %53

45:                                               ; preds = %9
  %46 = load ptr, ptr %20, align 8
  %47 = load ptr, ptr %12, align 8
  %48 = load ptr, ptr %11, align 8
  %49 = load ptr, ptr %13, align 8
  %50 = load i32, ptr %49, align 4
  %51 = load i32, ptr %22, align 4
  %52 = call ptr (ptr, ptr, ptr, ptr, i32, i32, ptr, ...) @proto_tree_add_expert_format(ptr noundef %46, ptr noundef %47, ptr noundef @ei_array_length, ptr noundef %48, i32 noundef %50, i32 noundef 4, ptr noundef @.str.210, i32 noundef %51)
  store i32 1, ptr %23, align 4
  br label %83

53:                                               ; preds = %9
  %54 = load ptr, ptr %13, align 8
  %55 = load i32, ptr %54, align 4
  %56 = add i32 %55, 4
  store i32 %56, ptr %54, align 4
  store i32 0, ptr %21, align 4
  br label %57

57:                                               ; preds = %75, %53
  %58 = load i32, ptr %21, align 4
  %59 = load i32, ptr %22, align 4
  %60 = icmp slt i32 %58, %59
  br i1 %60, label %61, label %78

61:                                               ; preds = %57
  call void @llvm.lifetime.start.p0(i64 8, ptr %24) #3
  %62 = load ptr, ptr %17, align 8
  %63 = load ptr, ptr %20, align 8
  %64 = load ptr, ptr %11, align 8
  %65 = load ptr, ptr %12, align 8
  %66 = load ptr, ptr %13, align 8
  %67 = load i32, ptr %16, align 4
  %68 = call ptr %62(ptr noundef %63, ptr noundef %64, ptr noundef %65, ptr noundef %66, i32 noundef %67)
  store ptr %68, ptr %24, align 8
  %69 = load ptr, ptr %24, align 8
  %70 = icmp ne ptr %69, null
  br i1 %70, label %71, label %74

71:                                               ; preds = %61
  %72 = load ptr, ptr %24, align 8
  %73 = load i32, ptr %21, align 4
  call void (ptr, ptr, ...) @proto_item_prepend_text(ptr noundef %72, ptr noundef @.str.211, i32 noundef %73)
  br label %74

74:                                               ; preds = %71, %61
  call void @llvm.lifetime.end.p0(i64 8, ptr %24) #3
  br label %75

75:                                               ; preds = %74
  %76 = load i32, ptr %21, align 4
  %77 = add i32 %76, 1
  store i32 %77, ptr %21, align 4
  br label %57, !llvm.loop !8

78:                                               ; preds = %57
  %79 = load ptr, ptr %19, align 8
  %80 = load ptr, ptr %11, align 8
  %81 = load ptr, ptr %13, align 8
  %82 = load i32, ptr %81, align 4
  call void @proto_item_set_end(ptr noundef %79, ptr noundef %80, i32 noundef %82)
  store i32 0, ptr %23, align 4
  br label %83

83:                                               ; preds = %78, %45
  call void @llvm.lifetime.end.p0(i64 4, ptr %22) #3
  call void @llvm.lifetime.end.p0(i64 4, ptr %21) #3
  call void @llvm.lifetime.end.p0(i64 8, ptr %20) #3
  call void @llvm.lifetime.end.p0(i64 8, ptr %19) #3
  %84 = load i32, ptr %23, align 4
  switch i32 %84, label %86 [
    i32 0, label %85
    i32 1, label %85
  ]

85:                                               ; preds = %83, %83
  ret void

86:                                               ; preds = %83
  unreachable
}